; Function Attrs: nounwind ssp uwtable
define dso_local void @crypto_core_ed25519_scalar_add(ptr noundef nonnull %0, ptr noundef nonnull readonly captures(none) %1, ptr noundef nonnull readonly captures(none) %2) local_unnamed_addr #0 {
  %4 = alloca [64 x i8], align 16
  %5 = alloca [64 x i8], align 16
  %6 = alloca [64 x i8], align 16
  call void @llvm.lifetime.start.p0(i64 64, ptr nonnull %5) #6
  call void @llvm.lifetime.start.p0(i64 64, ptr nonnull %6) #6
  %7 = getelementptr inbounds nuw i8, ptr %5, i64 32
  call void @llvm.memset.p0.i64(ptr noundef nonnull align 16 dereferenceable(32) %7, i8 0, i64 32, i1 false)
  call void @llvm.memcpy.p0.p0.i64(ptr noundef nonnull align 16 dereferenceable(32) %5, ptr noundef nonnull align 1 dereferenceable(32) %1, i64 noundef 32, i1 noundef false) #6
  %8 = getelementptr inbounds nuw i8, ptr %6, i64 32
  call void @llvm.memset.p0.i64(ptr noundef nonnull align 16 dereferenceable(32) %8, i8 0, i64 32, i1 false)
  call void @llvm.memcpy.p0.p0.i64(ptr noundef nonnull align 16 dereferenceable(32) %6, ptr noundef nonnull align 1 dereferenceable(32) %2, i64 noundef 32, i1 noundef false) #6
  call void @sodium_add(ptr noundef nonnull %5, ptr noundef nonnull %6, i64 noundef 32) #6
  call void @llvm.lifetime.start.p0(i64 64, ptr nonnull %4) #6
  call void @llvm.memcpy.p0.p0.i64(ptr noundef nonnull align 16 dereferenceable(64) %4, ptr noundef nonnull readonly align 16 dereferenceable(64) %5, i64 noundef 64, i1 noundef false) #6
  call void @_sodium_sc25519_reduce(ptr noundef nonnull %4) #6
  call void @llvm.memcpy.p0.p0.i64(ptr noundef nonnull align 1 dereferenceable(32) %0, ptr noundef nonnull align 16 dereferenceable(32) %4, i64 noundef 32, i1 noundef false) #6
  call void @sodium_memzero(ptr noundef nonnull %4, i64 noundef 64) #6
  call void @llvm.lifetime.end.p0(i64 64, ptr nonnull %4) #6
  call void @llvm.lifetime.end.p0(i64 64, ptr nonnull %6) #6
  call void @llvm.lifetime.end.p0(i64 64, ptr nonnull %5) #6
  ret void
}